target datalayout = "e-m:e-p270:32:32-p271:32:32-p272:64:64-i64:64-i128:128-f80:128-n8:16:32:64-S128"
target triple = "x86_64-pc-linux-gnu"

@s_Truths6Neg = internal global [6 x i64] [i64 6148914691236517205, i64 3689348814741910323, i64 1085102592571150095, i64 71777214294589695, i64 281470681808895, i64 4294967295], align 16

; Function Attrs: inlinehint nounwind uwtable
define internal i32 @Abc_TtWordNum(i32 noundef %0) #2 {
  %2 = alloca i32, align 4
  store i32 %0, ptr %2, align 4, !tbaa !8
  %3 = load i32, ptr %2, align 4, !tbaa !8
  %4 = icmp sle i32 %3, 6
  br i1 %4, label %5, label %6

5:                                                ; preds = %1
  br label %10

6:                                                ; preds = %1
  %7 = load i32, ptr %2, align 4, !tbaa !8
  %8 = sub nsw i32 %7, 6
  %9 = shl i32 1, %8
  br label %10

10:                                               ; preds = %6, %5
  %11 = phi i32 [ 1, %5 ], [ %9, %6 ]
  ret i32 %11
}

; Function Attrs: inlinehint nounwind uwtable
define internal i32 @Abc_Tt6HasVar(i64 noundef %0, i32 noundef %1) #2 {
  %3 = alloca i64, align 8
  %4 = alloca i32, align 4
  store i64 %0, ptr %3, align 8, !tbaa !33
  store i32 %1, ptr %4, align 4, !tbaa !8
  %5 = load i64, ptr %3, align 8, !tbaa !33
  %6 = load i32, ptr %4, align 4, !tbaa !8
  %7 = shl i32 1, %6
  %8 = zext i32 %7 to i64
  %9 = lshr i64 %5, %8
  %10 = load i32, ptr %4, align 4, !tbaa !8
  %11 = sext i32 %10 to i64
  %12 = getelementptr inbounds [6 x i64], ptr @s_Truths6Neg, i64 0, i64 %11
  %13 = load i64, ptr %12, align 8, !tbaa !33
  %14 = and i64 %9, %13
  %15 = load i64, ptr %3, align 8, !tbaa !33
  %16 = load i32, ptr %4, align 4, !tbaa !8
  %17 = sext i32 %16 to i64
  %18 = getelementptr inbounds [6 x i64], ptr @s_Truths6Neg, i64 0, i64 %17
  %19 = load i64, ptr %18, align 8, !tbaa !33
  %20 = and i64 %15, %19
  %21 = icmp ne i64 %14, %20
  %22 = zext i1 %21 to i32
  ret i32 %22
}

; Function Attrs: inlinehint nounwind uwtable
define internal i32 @Abc_TtHasVar(ptr noundef %0, i32 noundef %1, i32 noundef %2) #2 {
  %4 = alloca i32, align 4
  %5 = alloca ptr, align 8
  %6 = alloca i32, align 4
  %7 = alloca i32, align 4
  %8 = alloca i32, align 4
  %9 = alloca i32, align 4
  %10 = alloca i32, align 4
  %11 = alloca i32, align 4
  %12 = alloca i32, align 4
  %13 = alloca i32, align 4
  %14 = alloca ptr, align 8
  store ptr %0, ptr %5, align 8, !tbaa !35
  store i32 %1, ptr %6, align 4, !tbaa !8
  store i32 %2, ptr %7, align 4, !tbaa !8
  %15 = load i32, ptr %6, align 4, !tbaa !8
  %16 = icmp sle i32 %15, 6
  br i1 %16, label %17, label %23

17:                                               ; preds = %3
  %18 = load ptr, ptr %5, align 8, !tbaa !35
  %19 = getelementptr inbounds i64, ptr %18, i64 0
  %20 = load i64, ptr %19, align 8, !tbaa !33
  %21 = load i32, ptr %7, align 4, !tbaa !8
  %22 = call i32 @Abc_Tt6HasVar(i64 noundef %20, i32 noundef %21)
  store i32 %22, ptr %4, align 4
  br label %113

23:                                               ; preds = %3
  %24 = load i32, ptr %7, align 4, !tbaa !8
  %25 = icmp slt i32 %24, 6
  br i1 %25, label %26, label %67

26:                                               ; preds = %23
  call void @llvm.lifetime.start.p0(i64 4, ptr %8) #9
  call void @llvm.lifetime.start.p0(i64 4, ptr %9) #9
  %27 = load i32, ptr %7, align 4, !tbaa !8
  %28 = shl i32 1, %27
  store i32 %28, ptr %9, align 4, !tbaa !8
  call void @llvm.lifetime.start.p0(i64 4, ptr %10) #9
  %29 = load i32, ptr %6, align 4, !tbaa !8
  %30 = call i32 @Abc_TtWordNum(i32 noundef %29)
  store i32 %30, ptr %10, align 4, !tbaa !8
  store i32 0, ptr %8, align 4, !tbaa !8
  br label %31

31:                                               ; preds = %62, %26
  %32 = load i32, ptr %8, align 4, !tbaa !8
  %33 = load i32, ptr %10, align 4, !tbaa !8
  %34 = icmp slt i32 %32, %33
  br i1 %34, label %35, label %65

35:                                               ; preds = %31
  %36 = load ptr, ptr %5, align 8, !tbaa !35
  %37 = load i32, ptr %8, align 4, !tbaa !8
  %38 = sext i32 %37 to i64
  %39 = getelementptr inbounds i64, ptr %36, i64 %38
  %40 = load i64, ptr %39, align 8, !tbaa !33
  %41 = load i32, ptr %9, align 4, !tbaa !8
  %42 = zext i32 %41 to i64
  %43 = lshr i64 %40, %42
  %44 = load i32, ptr %7, align 4, !tbaa !8
  %45 = sext i32 %44 to i64
  %46 = getelementptr inbounds [6 x i64], ptr @s_Truths6Neg, i64 0, i64 %45
  %47 = load i64, ptr %46, align 8, !tbaa !33
  %48 = and i64 %43, %47
  %49 = load ptr, ptr %5, align 8, !tbaa !35
  %50 = load i32, ptr %8, align 4, !tbaa !8
  %51 = sext i32 %50 to i64
  %52 = getelementptr inbounds i64, ptr %49, i64 %51
  %53 = load i64, ptr %52, align 8, !tbaa !33
  %54 = load i32, ptr %7, align 4, !tbaa !8
  %55 = sext i32 %54 to i64
  %56 = getelementptr inbounds [6 x i64], ptr @s_Truths6Neg, i64 0, i64 %55
  %57 = load i64, ptr %56, align 8, !tbaa !33
  %58 = and i64 %53, %57
  %59 = icmp ne i64 %48, %58
  br i1 %59, label %60, label %61

60:                                               ; preds = %35
  store i32 1, ptr %4, align 4
  store i32 1, ptr %11, align 4
  br label %66

61:                                               ; preds = %35
  br label %62

62:                                               ; preds = %61
  %63 = load i32, ptr %8, align 4, !tbaa !8
  %64 = add nsw i32 %63, 1
  store i32 %64, ptr %8, align 4, !tbaa !8
  br label %31, !llvm.loop !53

65:                                               ; preds = %31
  store i32 0, ptr %4, align 4
  store i32 1, ptr %11, align 4
  br label %66

66:                                               ; preds = %65, %60
  call void @llvm.lifetime.end.p0(i64 4, ptr %10) #9
  call void @llvm.lifetime.end.p0(i64 4, ptr %9) #9
  call void @llvm.lifetime.end.p0(i64 4, ptr %8) #9
  br label %113

67:                                               ; preds = %23
  call void @llvm.lifetime.start.p0(i64 4, ptr %12) #9
  call void @llvm.lifetime.start.p0(i64 4, ptr %13) #9
  %68 = load i32, ptr %7, align 4, !tbaa !8
  %69 = sub nsw i32 %68, 6
  %70 = shl i32 1, %69
  store i32 %70, ptr %13, align 4, !tbaa !8
  call void @llvm.lifetime.start.p0(i64 8, ptr %14) #9
  %71 = load ptr, ptr %5, align 8, !tbaa !35
  %72 = load i32, ptr %6, align 4, !tbaa !8
  %73 = call i32 @Abc_TtWordNum(i32 noundef %72)
  %74 = sext i32 %73 to i64
  %75 = getelementptr inbounds i64, ptr %71, i64 %74
  store ptr %75, ptr %14, align 8, !tbaa !35
  br label %76

76:                                               ; preds = %105, %67
  %77 = load ptr, ptr %5, align 8, !tbaa !35
  %78 = load ptr, ptr %14, align 8, !tbaa !35
  %79 = icmp ult ptr %77, %78
  br i1 %79, label %80, label %111

80:                                               ; preds = %76
  store i32 0, ptr %12, align 4, !tbaa !8
  br label %81

81:                                               ; preds = %101, %80
  %82 = load i32, ptr %12, align 4, !tbaa !8
  %83 = load i32, ptr %13, align 4, !tbaa !8
  %84 = icmp slt i32 %82, %83
  br i1 %84, label %85, label %104

85:                                               ; preds = %81
  %86 = load ptr, ptr %5, align 8, !tbaa !35
  %87 = load i32, ptr %12, align 4, !tbaa !8
  %88 = sext i32 %87 to i64
  %89 = getelementptr inbounds i64, ptr %86, i64 %88
  %90 = load i64, ptr %89, align 8, !tbaa !33
  %91 = load ptr, ptr %5, align 8, !tbaa !35
  %92 = load i32, ptr %13, align 4, !tbaa !8
  %93 = load i32, ptr %12, align 4, !tbaa !8
  %94 = add nsw i32 %92, %93
  %95 = sext i32 %94 to i64
  %96 = getelementptr inbounds i64, ptr %91, i64 %95
  %97 = load i64, ptr %96, align 8, !tbaa !33
  %98 = icmp ne i64 %90, %97
  br i1 %98, label %99, label %100

99:                                               ; preds = %85
  store i32 1, ptr %4, align 4
  store i32 1, ptr %11, align 4
  br label %112

100:                                              ; preds = %85
  br label %101

101:                                              ; preds = %100
  %102 = load i32, ptr %12, align 4, !tbaa !8
  %103 = add nsw i32 %102, 1
  store i32 %103, ptr %12, align 4, !tbaa !8
  br label %81, !llvm.loop !54

104:                                              ; preds = %81
  br label %105

105:                                              ; preds = %104
  %106 = load i32, ptr %13, align 4, !tbaa !8
  %107 = mul nsw i32 2, %106
  %108 = load ptr, ptr %5, align 8, !tbaa !35
  %109 = sext i32 %107 to i64
  %110 = getelementptr inbounds i64, ptr %108, i64 %109
  store ptr %110, ptr %5, align 8, !tbaa !35
  br label %76, !llvm.loop !55

111:                                              ; preds = %76
  store i32 0, ptr %4, align 4
  store i32 1, ptr %11, align 4
  br label %112

112:                                              ; preds = %111, %99
  call void @llvm.lifetime.end.p0(i64 8, ptr %14) #9
  call void @llvm.lifetime.end.p0(i64 4, ptr %13) #9
  call void @llvm.lifetime.end.p0(i64 4, ptr %12) #9
  br label %113

113:                                              ; preds = %112, %66, %17
  %114 = load i32, ptr %4, align 4
  ret i32 %114
}

; Function Attrs: nounwind uwtable
define i32 @Dau_DsdMinBase(ptr noundef %0, i32 noundef %1, ptr noundef %2) #0 {
  %4 = alloca ptr, align 8
  %5 = alloca i32, align 4
  %6 = alloca ptr, align 8
  %7 = alloca i32, align 4
  store ptr %0, ptr %4, align 8, !tbaa !35
  store i32 %1, ptr %5, align 4, !tbaa !8
  store ptr %2, ptr %6, align 8, !tbaa !14
  call void @llvm.lifetime.start.p0(i64 4, ptr %7) #9
  store i32 0, ptr %7, align 4, !tbaa !8
  br label %8

8:                                                ; preds = %18, %3
  %9 = load i32, ptr %7, align 4, !tbaa !8
  %10 = load i32, ptr %5, align 4, !tbaa !8
  %11 = icmp slt i32 %9, %10
  br i1 %11, label %12, label %21

12:                                               ; preds = %8
  %13 = load i32, ptr %7, align 4, !tbaa !8
  %14 = load ptr, ptr %6, align 8, !tbaa !14
  %15 = load i32, ptr %7, align 4, !tbaa !8
  %16 = sext i32 %15 to i64
  %17 = getelementptr inbounds i32, ptr %14, i64 %16
  store i32 %13, ptr %17, align 4, !tbaa !8
  br label %18

18:                                               ; preds = %12
  %19 = load i32, ptr %7, align 4, !tbaa !8
  %20 = add nsw i32 %19, 1
  store i32 %20, ptr %7, align 4, !tbaa !8
  br label %8, !llvm.loop !114

21:                                               ; preds = %8
  %22 = load i32, ptr %5, align 4, !tbaa !8
  %23 = sub nsw i32 %22, 1
  store i32 %23, ptr %7, align 4, !tbaa !8
  br label %24

24:                                               ; preds = %50, %21
  %25 = load i32, ptr %7, align 4, !tbaa !8
  %26 = icmp sge i32 %25, 0
  br i1 %26, label %27, label %53

27:                                               ; preds = %24
  %28 = load ptr, ptr %4, align 8, !tbaa !35
  %29 = load i32, ptr %5, align 4, !tbaa !8
  %30 = load i32, ptr %7, align 4, !tbaa !8
  %31 = call i32 @Abc_TtHasVar(ptr noundef %28, i32 noundef %29, i32 noundef %30)
  %32 = icmp ne i32 %31, 0
  br i1 %32, label %33, label %34

33:                                               ; preds = %27
  br label %50

34:                                               ; preds = %27
  %35 = load ptr, ptr %4, align 8, !tbaa !35
  %36 = load i32, ptr %5, align 4, !tbaa !8
  %37 = load i32, ptr %7, align 4, !tbaa !8
  %38 = load i32, ptr %5, align 4, !tbaa !8
  %39 = sub nsw i32 %38, 1
  call void @Abc_TtSwapVars(ptr noundef %35, i32 noundef %36, i32 noundef %37, i32 noundef %39)
  %40 = load ptr, ptr %6, align 8, !tbaa !14
  %41 = load i32, ptr %5, align 4, !tbaa !8
  %42 = add nsw i32 %41, -1
  store i32 %42, ptr %5, align 4, !tbaa !8
  %43 = sext i32 %42 to i64
  %44 = getelementptr inbounds i32, ptr %40, i64 %43
  %45 = load i32, ptr %44, align 4, !tbaa !8
  %46 = load ptr, ptr %6, align 8, !tbaa !14
  %47 = load i32, ptr %7, align 4, !tbaa !8
  %48 = sext i32 %47 to i64
  %49 = getelementptr inbounds i32, ptr %46, i64 %48
  store i32 %45, ptr %49, align 4, !tbaa !8
  br label %50

50:                                               ; preds = %34, %33
  %51 = load i32, ptr %7, align 4, !tbaa !8
  %52 = add nsw i32 %51, -1
  store i32 %52, ptr %7, align 4, !tbaa !8
  br label %24, !llvm.loop !115

53:                                               ; preds = %24
  %54 = load i32, ptr %5, align 4, !tbaa !8
  call void @llvm.lifetime.end.p0(i64 4, ptr %7) #9
  ret i32 %54
}