; Function Attrs: nofree norecurse nosync nounwind memory(read, argmem: readwrite, inaccessiblemem: none) uwtable
define i32 @Dau_DsdMinBase(ptr noundef %0, i32 noundef %1, ptr noundef captures(none) %2) local_unnamed_addr #20 {
  %4 = icmp sgt i32 %1, 0
  br i1 %4, label %.lr.ph.preheader, label %._crit_edge

.lr.ph.preheader:                                 ; preds = %3
  %wide.trip.count = zext nneg i32 %1 to i64
  br label %.lr.ph

.lr.ph38.preheader:                               ; preds = %.lr.ph
  %5 = zext nneg i32 %1 to i64
  br label %.lr.ph38

.lr.ph:                                           ; preds = %.lr.ph.preheader, %.lr.ph
  %indvars.iv = phi i64 [ 0, %.lr.ph.preheader ], [ %indvars.iv.next, %.lr.ph ]
  %6 = getelementptr inbounds nuw i32, ptr %2, i64 %indvars.iv
  %7 = trunc nuw nsw i64 %indvars.iv to i32
  store i32 %7, ptr %6, align 4, !tbaa !6
  %indvars.iv.next = add nuw nsw i64 %indvars.iv, 1
  %exitcond.not = icmp eq i64 %indvars.iv.next, %wide.trip.count
  br i1 %exitcond.not, label %.lr.ph38.preheader, label %.lr.ph, !llvm.loop !143

.lr.ph38:                                         ; preds = %.lr.ph38.preheader, %Abc_TtHasVar.exit.thread26
  %indvars.iv42 = phi i64 [ %5, %.lr.ph38.preheader ], [ %indvars.iv.next43, %Abc_TtHasVar.exit.thread26 ]
  %.02034 = phi i32 [ %1, %.lr.ph38.preheader ], [ %.121, %Abc_TtHasVar.exit.thread26 ]
  %indvars.iv.next43 = add nsw i64 %indvars.iv42, -1
  %8 = icmp slt i32 %.02034, 7
  br i1 %8, label %Abc_TtHasVar.exit, label %9

9:                                                ; preds = %.lr.ph38
  %10 = icmp samesign ult i64 %indvars.iv42, 7
  br i1 %10, label %11, label %26

11:                                               ; preds = %9
  %12 = add nsw i32 %.02034, -6
  %.not48.i = icmp eq i32 %12, 31
  br i1 %.not48.i, label %Abc_TtHasVar.exit.thread, label %.lr.ph.i

.lr.ph.i:                                         ; preds = %11
  %13 = shl nuw i32 1, %12
  %14 = trunc nuw nsw i64 %indvars.iv.next43 to i32
  %15 = shl nuw nsw i32 1, %14
  %16 = zext nneg i32 %15 to i64
  %17 = getelementptr inbounds nuw [6 x i64], ptr @s_Truths6Neg, i64 0, i64 %indvars.iv.next43
  %18 = load i64, ptr %17, align 8, !tbaa !29
  %smax56.i = tail call i32 @llvm.smax.i32(i32 %13, i32 1)
  %wide.trip.count57.i = zext nneg i32 %smax56.i to i64
  br label %20

19:                                               ; preds = %20
  %indvars.iv.next54.i = add nuw nsw i64 %indvars.iv53.i, 1
  %exitcond58.not.i = icmp eq i64 %indvars.iv.next54.i, %wide.trip.count57.i
  br i1 %exitcond58.not.i, label %Abc_TtHasVar.exit.thread, label %20, !llvm.loop !75

20:                                               ; preds = %19, %.lr.ph.i
  %indvars.iv53.i = phi i64 [ 0, %.lr.ph.i ], [ %indvars.iv.next54.i, %19 ]
  %21 = getelementptr inbounds nuw i64, ptr %0, i64 %indvars.iv53.i
  %22 = load i64, ptr %21, align 8, !tbaa !29
  %23 = lshr i64 %22, %16
  %24 = xor i64 %23, %22
  %25 = and i64 %24, %18
  %.not39.i = icmp eq i64 %25, 0
  br i1 %.not39.i, label %19, label %Abc_TtHasVar.exit.thread26

26:                                               ; preds = %9
  %27 = trunc i64 %indvars.iv42 to i32
  %28 = add i32 %27, -7
  %29 = shl nuw i32 1, %28
  %30 = add nsw i32 %.02034, -6
  %31 = shl nuw i32 1, %30
  %32 = sext i32 %31 to i64
  %33 = getelementptr inbounds i64, ptr %0, i64 %32
  %.not.i = icmp eq i32 %30, 31
  br i1 %.not.i, label %Abc_TtHasVar.exit.thread, label %.preheader.lr.ph.i

.preheader.lr.ph.i:                               ; preds = %26
  %.not47.i = icmp eq i32 %28, 31
  %34 = shl i32 2, %28
  %35 = sext i32 %34 to i64
  br i1 %.not47.i, label %Abc_TtHasVar.exit.thread, label %.preheader.us.preheader.i

.preheader.us.preheader.i:                        ; preds = %.preheader.lr.ph.i
  %36 = sext i32 %29 to i64
  %smax.i = tail call i32 @llvm.smax.i32(i32 %29, i32 1)
  %wide.trip.count.i = zext nneg i32 %smax.i to i64
  br label %.preheader.us.i

.preheader.us.i:                                  ; preds = %._crit_edge.us.i, %.preheader.us.preheader.i
  %.03143.us.i = phi ptr [ %42, %._crit_edge.us.i ], [ %0, %.preheader.us.preheader.i ]
  %invariant.gep.i = getelementptr i64, ptr %.03143.us.i, i64 %36
  br label %38

37:                                               ; preds = %38
  %indvars.iv.next.i = add nuw nsw i64 %indvars.iv.i, 1
  %exitcond.not.i = icmp eq i64 %indvars.iv.next.i, %wide.trip.count.i
  br i1 %exitcond.not.i, label %._crit_edge.us.i, label %38, !llvm.loop !43

38:                                               ; preds = %37, %.preheader.us.i
  %indvars.iv.i = phi i64 [ 0, %.preheader.us.i ], [ %indvars.iv.next.i, %37 ]
  %39 = getelementptr inbounds nuw i64, ptr %.03143.us.i, i64 %indvars.iv.i
  %40 = load i64, ptr %39, align 8, !tbaa !29
  %gep.i = getelementptr i64, ptr %invariant.gep.i, i64 %indvars.iv.i
  %41 = load i64, ptr %gep.i, align 8, !tbaa !29
  %.not.us.i = icmp eq i64 %40, %41
  br i1 %.not.us.i, label %37, label %Abc_TtHasVar.exit.thread26

._crit_edge.us.i:                                 ; preds = %37
  %42 = getelementptr inbounds i64, ptr %.03143.us.i, i64 %35
  %43 = icmp ult ptr %42, %33
  br i1 %43, label %.preheader.us.i, label %Abc_TtHasVar.exit.thread, !llvm.loop !44

Abc_TtHasVar.exit:                                ; preds = %.lr.ph38
  %44 = load i64, ptr %0, align 8, !tbaa !29
  %45 = trunc nuw nsw i64 %indvars.iv.next43 to i32
  %46 = shl nuw i32 1, %45
  %47 = zext nneg i32 %46 to i64
  %48 = lshr i64 %44, %47
  %49 = getelementptr inbounds nuw [6 x i64], ptr @s_Truths6Neg, i64 0, i64 %indvars.iv.next43
  %50 = load i64, ptr %49, align 8, !tbaa !29
  %51 = xor i64 %48, %44
  %52 = and i64 %51, %50
  %.not29 = icmp eq i64 %52, 0
  br i1 %.not29, label %Abc_TtHasVar.exit.thread, label %Abc_TtHasVar.exit.thread26

Abc_TtHasVar.exit.thread:                         ; preds = %._crit_edge.us.i, %19, %.preheader.lr.ph.i, %26, %11, %Abc_TtHasVar.exit
  %53 = add nsw i32 %.02034, -1
  %54 = trunc nuw nsw i64 %indvars.iv.next43 to i32
  tail call fastcc void @Abc_TtSwapVars(ptr noundef %0, i32 noundef %.02034, i32 noundef %54, i32 noundef %53)
  %55 = sext i32 %53 to i64
  %56 = getelementptr inbounds i32, ptr %2, i64 %55
  %57 = load i32, ptr %56, align 4, !tbaa !6
  %58 = getelementptr inbounds nuw i32, ptr %2, i64 %indvars.iv.next43
  store i32 %57, ptr %58, align 4, !tbaa !6
  br label %Abc_TtHasVar.exit.thread26

Abc_TtHasVar.exit.thread26:                       ; preds = %20, %38, %Abc_TtHasVar.exit, %Abc_TtHasVar.exit.thread
  %.121 = phi i32 [ %.02034, %Abc_TtHasVar.exit ], [ %53, %Abc_TtHasVar.exit.thread ], [ %.02034, %38 ], [ %.02034, %20 ]
  %59 = icmp sgt i64 %indvars.iv42, 1
  br i1 %59, label %.lr.ph38, label %._crit_edge, !llvm.loop !144

._crit_edge:                                      ; preds = %Abc_TtHasVar.exit.thread26, %3
  %.020.lcssa = phi i32 [ %1, %3 ], [ %.121, %Abc_TtHasVar.exit.thread26 ]
  ret i32 %.020.lcssa
}